target datalayout = "e-m:e-p270:32:32-p271:32:32-p272:64:64-i64:64-i128:128-f80:128-n8:16:32:64-S128"
target triple = "x86_64-pc-linux-gnu"

%struct.SparseMatrix_struct = type { i32, i32, i32, i32, i32, ptr, ptr, ptr, i32, i8, i64 }

; Function Attrs: nounwind uwtable
define ptr @SparseMatrix_make_undirected(ptr noundef %0) #0 {
  %2 = alloca ptr, align 8
  %3 = alloca ptr, align 8
  store ptr %0, ptr %2, align 8, !tbaa !3
  call void @llvm.lifetime.start.p0(i64 8, ptr %3) #11
  %4 = load ptr, ptr %2, align 8, !tbaa !3
  %5 = call ptr @SparseMatrix_symmetrize(ptr noundef %4, i1 noundef zeroext false)
  store ptr %5, ptr %3, align 8, !tbaa !3
  %6 = load ptr, ptr %3, align 8, !tbaa !3
  %7 = getelementptr inbounds nuw %struct.SparseMatrix_struct, ptr %6, i32 0, i32 9
  %8 = load i8, ptr %7, align 4
  %9 = and i8 %8, -5
  %10 = or i8 %9, 4
  store i8 %10, ptr %7, align 4
  %11 = load ptr, ptr %3, align 8, !tbaa !3
  %12 = call ptr @SparseMatrix_remove_upper(ptr noundef %11)
  call void @llvm.lifetime.end.p0(i64 8, ptr %3) #11
  ret ptr %12
}