; Function Attrs: nounwind uwtable
define noundef ptr @SparseMatrix_make_undirected(ptr noundef captures(address_is_null) %0) local_unnamed_addr #0 {
  %2 = tail call ptr @SparseMatrix_symmetrize(ptr noundef %0, i1 noundef zeroext false)
  %3 = getelementptr inbounds nuw i8, ptr %2, i64 52
  %4 = load i8, ptr %3, align 4
  %5 = or i8 %4, 4
  store i8 %5, ptr %3, align 4
  %6 = tail call ptr @SparseMatrix_remove_upper(ptr noundef %2)
  ret ptr %6
}